target datalayout = "e-m:e-p270:32:32-p271:32:32-p272:64:64-i64:64-i128:128-f80:128-n8:16:32:64-S128"
target triple = "x86_64-pc-linux-gnu"

%struct.FT_Vector_ = type { i64, i64 }
%struct.FT_ListRec_ = type { ptr, ptr }
%struct.FT_ModuleRec_ = type { ptr, ptr, ptr }
%struct.FT_Module_Class_ = type { i64, i64, ptr, i64, i64, ptr, ptr, ptr, ptr }
%struct.FT_LibraryRec_ = type { ptr, i32, i32, i32, i32, [32 x ptr], %struct.FT_ListRec_, ptr, ptr, [4 x ptr], [3 x %struct.FT_Vector_], i32 }
%struct.FT_RendererRec_ = type { %struct.FT_ModuleRec_, ptr, i32, %struct.FT_Glyph_Class_, ptr, ptr, ptr }
%struct.FT_Glyph_Class_ = type { i64, i32, ptr, ptr, ptr, ptr, ptr, ptr }
%struct.FT_Renderer_Class_ = type { %struct.FT_Module_Class_, i32, ptr, ptr, ptr, ptr, ptr }
%struct.FT_MemoryRec_ = type { ptr, ptr, ptr, ptr }
%struct.FT_ListNodeRec_ = type { ptr, ptr, ptr }
%struct.FT_Raster_Funcs_ = type { i32, ptr, ptr, ptr, ptr, ptr }

; Function Attrs: nounwind uwtable
define hidden ptr @FT_Lookup_Renderer(ptr noundef %0, i32 noundef %1, ptr noundef %2) #0 {
  %4 = alloca ptr, align 8
  %5 = alloca i32, align 4
  %6 = alloca ptr, align 8
  %7 = alloca ptr, align 8
  %8 = alloca ptr, align 8
  %9 = alloca ptr, align 8
  %10 = alloca i32, align 4
  store ptr %0, ptr %4, align 8, !tbaa !70
  store i32 %1, ptr %5, align 4, !tbaa !8
  store ptr %2, ptr %6, align 8, !tbaa !505
  call void @llvm.lifetime.start.p0(i64 8, ptr %7) #10
  call void @llvm.lifetime.start.p0(i64 8, ptr %8) #10
  store ptr null, ptr %8, align 8, !tbaa !135
  %11 = load ptr, ptr %4, align 8, !tbaa !70
  %12 = icmp ne ptr %11, null
  br i1 %12, label %14, label %13

13:                                               ; preds = %3
  br label %61

14:                                               ; preds = %3
  %15 = load ptr, ptr %4, align 8, !tbaa !70
  %16 = getelementptr inbounds nuw %struct.FT_LibraryRec_, ptr %15, i32 0, i32 6
  %17 = getelementptr inbounds nuw %struct.FT_ListRec_, ptr %16, i32 0, i32 0
  %18 = load ptr, ptr %17, align 8, !tbaa !507
  store ptr %18, ptr %7, align 8, !tbaa !364
  %19 = load ptr, ptr %6, align 8, !tbaa !505
  %20 = icmp ne ptr %19, null
  br i1 %20, label %21, label %32

21:                                               ; preds = %14
  %22 = load ptr, ptr %6, align 8, !tbaa !505
  %23 = load ptr, ptr %22, align 8, !tbaa !364
  %24 = icmp ne ptr %23, null
  br i1 %24, label %25, label %30

25:                                               ; preds = %21
  %26 = load ptr, ptr %6, align 8, !tbaa !505
  %27 = load ptr, ptr %26, align 8, !tbaa !364
  %28 = getelementptr inbounds nuw %struct.FT_ListNodeRec_, ptr %27, i32 0, i32 1
  %29 = load ptr, ptr %28, align 8, !tbaa !391
  store ptr %29, ptr %7, align 8, !tbaa !364
  br label %30

30:                                               ; preds = %25, %21
  %31 = load ptr, ptr %6, align 8, !tbaa !505
  store ptr null, ptr %31, align 8, !tbaa !364
  br label %32

32:                                               ; preds = %30, %14
  br label %33

33:                                               ; preds = %59, %32
  %34 = load ptr, ptr %7, align 8, !tbaa !364
  %35 = icmp ne ptr %34, null
  br i1 %35, label %36, label %60

36:                                               ; preds = %33
  call void @llvm.lifetime.start.p0(i64 8, ptr %9) #10
  %37 = load ptr, ptr %7, align 8, !tbaa !364
  %38 = getelementptr inbounds nuw %struct.FT_ListNodeRec_, ptr %37, i32 0, i32 2
  %39 = load ptr, ptr %38, align 8, !tbaa !370
  store ptr %39, ptr %9, align 8, !tbaa !135
  %40 = load ptr, ptr %9, align 8, !tbaa !135
  %41 = getelementptr inbounds nuw %struct.FT_RendererRec_, ptr %40, i32 0, i32 2
  %42 = load i32, ptr %41, align 8, !tbaa !350
  %43 = load i32, ptr %5, align 4, !tbaa !8
  %44 = icmp eq i32 %42, %43
  br i1 %44, label %45, label %53

45:                                               ; preds = %36
  %46 = load ptr, ptr %6, align 8, !tbaa !505
  %47 = icmp ne ptr %46, null
  br i1 %47, label %48, label %51

48:                                               ; preds = %45
  %49 = load ptr, ptr %7, align 8, !tbaa !364
  %50 = load ptr, ptr %6, align 8, !tbaa !505
  store ptr %49, ptr %50, align 8, !tbaa !364
  br label %51

51:                                               ; preds = %48, %45
  %52 = load ptr, ptr %9, align 8, !tbaa !135
  store ptr %52, ptr %8, align 8, !tbaa !135
  store i32 4, ptr %10, align 4
  br label %57

53:                                               ; preds = %36
  %54 = load ptr, ptr %7, align 8, !tbaa !364
  %55 = getelementptr inbounds nuw %struct.FT_ListNodeRec_, ptr %54, i32 0, i32 1
  %56 = load ptr, ptr %55, align 8, !tbaa !391
  store ptr %56, ptr %7, align 8, !tbaa !364
  store i32 0, ptr %10, align 4
  br label %57

57:                                               ; preds = %53, %51
  call void @llvm.lifetime.end.p0(i64 8, ptr %9) #10
  %58 = load i32, ptr %10, align 4
  switch i32 %58, label %63 [
    i32 0, label %59
    i32 4, label %60
  ]

59:                                               ; preds = %57
  br label %33, !llvm.loop !508

60:                                               ; preds = %57, %33
  br label %61

61:                                               ; preds = %60, %13
  %62 = load ptr, ptr %8, align 8, !tbaa !135
  store i32 1, ptr %10, align 4
  call void @llvm.lifetime.end.p0(i64 8, ptr %8) #10
  call void @llvm.lifetime.end.p0(i64 8, ptr %7) #10
  ret ptr %62

63:                                               ; preds = %57
  unreachable
}

; Function Attrs: nounwind uwtable
define hidden void @ft_mem_free(ptr noundef %0, ptr noundef %1) #0 {
  %3 = alloca ptr, align 8
  %4 = alloca ptr, align 8
  store ptr %0, ptr %3, align 8, !tbaa !185
  store ptr %1, ptr %4, align 8, !tbaa !41
  %5 = load ptr, ptr %4, align 8, !tbaa !41
  %6 = icmp ne ptr %5, null
  br i1 %6, label %7, label %13

7:                                                ; preds = %2
  %8 = load ptr, ptr %3, align 8, !tbaa !185
  %9 = getelementptr inbounds nuw %struct.FT_MemoryRec_, ptr %8, i32 0, i32 2
  %10 = load ptr, ptr %9, align 8, !tbaa !209
  %11 = load ptr, ptr %3, align 8, !tbaa !185
  %12 = load ptr, ptr %4, align 8, !tbaa !41
  call void %10(ptr noundef %11, ptr noundef %12)
  br label %13

13:                                               ; preds = %7, %2
  ret void
}

; Function Attrs: nounwind uwtable
define internal void @ft_set_current_renderer(ptr noundef %0) #0 {
  %2 = alloca ptr, align 8
  %3 = alloca ptr, align 8
  store ptr %0, ptr %2, align 8, !tbaa !70
  call void @llvm.lifetime.start.p0(i64 8, ptr %3) #10
  %4 = load ptr, ptr %2, align 8, !tbaa !70
  %5 = call ptr @FT_Lookup_Renderer(ptr noundef %4, i32 noundef 1869968492, ptr noundef null)
  store ptr %5, ptr %3, align 8, !tbaa !135
  %6 = load ptr, ptr %3, align 8, !tbaa !135
  %7 = load ptr, ptr %2, align 8, !tbaa !70
  %8 = getelementptr inbounds nuw %struct.FT_LibraryRec_, ptr %7, i32 0, i32 7
  store ptr %6, ptr %8, align 8, !tbaa !349
  call void @llvm.lifetime.end.p0(i64 8, ptr %3) #10
  ret void
}

; Function Attrs: nounwind uwtable
define void @FT_List_Add(ptr noundef %0, ptr noundef %1) #0 {
  %3 = alloca ptr, align 8
  %4 = alloca ptr, align 8
  %5 = alloca ptr, align 8
  %6 = alloca i32, align 4
  store ptr %0, ptr %3, align 8, !tbaa !388
  store ptr %1, ptr %4, align 8, !tbaa !364
  call void @llvm.lifetime.start.p0(i64 8, ptr %5) #10
  %7 = load ptr, ptr %3, align 8, !tbaa !388
  %8 = icmp ne ptr %7, null
  br i1 %8, label %9, label %12

9:                                                ; preds = %2
  %10 = load ptr, ptr %4, align 8, !tbaa !364
  %11 = icmp ne ptr %10, null
  br i1 %11, label %13, label %12

12:                                               ; preds = %9, %2
  store i32 1, ptr %6, align 4
  br label %36

13:                                               ; preds = %9
  %14 = load ptr, ptr %3, align 8, !tbaa !388
  %15 = getelementptr inbounds nuw %struct.FT_ListRec_, ptr %14, i32 0, i32 1
  %16 = load ptr, ptr %15, align 8, !tbaa !394
  store ptr %16, ptr %5, align 8, !tbaa !364
  %17 = load ptr, ptr %4, align 8, !tbaa !364
  %18 = getelementptr inbounds nuw %struct.FT_ListNodeRec_, ptr %17, i32 0, i32 1
  store ptr null, ptr %18, align 8, !tbaa !391
  %19 = load ptr, ptr %5, align 8, !tbaa !364
  %20 = load ptr, ptr %4, align 8, !tbaa !364
  %21 = getelementptr inbounds nuw %struct.FT_ListNodeRec_, ptr %20, i32 0, i32 0
  store ptr %19, ptr %21, align 8, !tbaa !393
  %22 = load ptr, ptr %5, align 8, !tbaa !364
  %23 = icmp ne ptr %22, null
  br i1 %23, label %24, label %28

24:                                               ; preds = %13
  %25 = load ptr, ptr %4, align 8, !tbaa !364
  %26 = load ptr, ptr %5, align 8, !tbaa !364
  %27 = getelementptr inbounds nuw %struct.FT_ListNodeRec_, ptr %26, i32 0, i32 1
  store ptr %25, ptr %27, align 8, !tbaa !391
  br label %32

28:                                               ; preds = %13
  %29 = load ptr, ptr %4, align 8, !tbaa !364
  %30 = load ptr, ptr %3, align 8, !tbaa !388
  %31 = getelementptr inbounds nuw %struct.FT_ListRec_, ptr %30, i32 0, i32 0
  store ptr %29, ptr %31, align 8, !tbaa !390
  br label %32

32:                                               ; preds = %28, %24
  %33 = load ptr, ptr %4, align 8, !tbaa !364
  %34 = load ptr, ptr %3, align 8, !tbaa !388
  %35 = getelementptr inbounds nuw %struct.FT_ListRec_, ptr %34, i32 0, i32 1
  store ptr %33, ptr %35, align 8, !tbaa !394
  store i32 0, ptr %6, align 4
  br label %36

36:                                               ; preds = %32, %12
  call void @llvm.lifetime.end.p0(i64 8, ptr %5) #10
  %37 = load i32, ptr %6, align 4
  switch i32 %37, label %39 [
    i32 0, label %38
    i32 1, label %38
  ]

38:                                               ; preds = %36, %36
  ret void

39:                                               ; preds = %36
  unreachable
}

; Function Attrs: nounwind uwtable
define hidden ptr @ft_mem_qalloc(ptr noundef %0, i64 noundef %1, ptr noundef %2) #0 {
  %4 = alloca ptr, align 8
  %5 = alloca i64, align 8
  %6 = alloca ptr, align 8
  %7 = alloca i32, align 4
  %8 = alloca ptr, align 8
  store ptr %0, ptr %4, align 8, !tbaa !185
  store i64 %1, ptr %5, align 8, !tbaa !47
  store ptr %2, ptr %6, align 8, !tbaa !164
  call void @llvm.lifetime.start.p0(i64 4, ptr %7) #10
  store i32 0, ptr %7, align 4, !tbaa !8
  call void @llvm.lifetime.start.p0(i64 8, ptr %8) #10
  store ptr null, ptr %8, align 8, !tbaa !41
  %9 = load i64, ptr %5, align 8, !tbaa !47
  %10 = icmp sgt i64 %9, 0
  br i1 %10, label %11, label %22

11:                                               ; preds = %3
  %12 = load ptr, ptr %4, align 8, !tbaa !185
  %13 = getelementptr inbounds nuw %struct.FT_MemoryRec_, ptr %12, i32 0, i32 1
  %14 = load ptr, ptr %13, align 8, !tbaa !408
  %15 = load ptr, ptr %4, align 8, !tbaa !185
  %16 = load i64, ptr %5, align 8, !tbaa !47
  %17 = call ptr %14(ptr noundef %15, i64 noundef %16)
  store ptr %17, ptr %8, align 8, !tbaa !41
  %18 = load ptr, ptr %8, align 8, !tbaa !41
  %19 = icmp ne ptr %18, null
  br i1 %19, label %21, label %20

20:                                               ; preds = %11
  store i32 64, ptr %7, align 4, !tbaa !8
  br label %21

21:                                               ; preds = %20, %11
  br label %27

22:                                               ; preds = %3
  %23 = load i64, ptr %5, align 8, !tbaa !47
  %24 = icmp slt i64 %23, 0
  br i1 %24, label %25, label %26

25:                                               ; preds = %22
  store i32 6, ptr %7, align 4, !tbaa !8
  br label %26

26:                                               ; preds = %25, %22
  br label %27

27:                                               ; preds = %26, %21
  %28 = load i32, ptr %7, align 4, !tbaa !8
  %29 = load ptr, ptr %6, align 8, !tbaa !164
  store i32 %28, ptr %29, align 4, !tbaa !8
  %30 = load ptr, ptr %8, align 8, !tbaa !41
  call void @llvm.lifetime.end.p0(i64 8, ptr %8) #10
  call void @llvm.lifetime.end.p0(i64 4, ptr %7) #10
  ret ptr %30
}

; Function Attrs: nounwind uwtable
define internal i32 @ft_add_renderer(ptr noundef %0) #0 {
  %2 = alloca i32, align 4
  %3 = alloca ptr, align 8
  %4 = alloca ptr, align 8
  %5 = alloca ptr, align 8
  %6 = alloca i32, align 4
  %7 = alloca ptr, align 8
  %8 = alloca ptr, align 8
  %9 = alloca ptr, align 8
  %10 = alloca i32, align 4
  store ptr %0, ptr %3, align 8, !tbaa !75
  call void @llvm.lifetime.start.p0(i64 8, ptr %4) #10
  %11 = load ptr, ptr %3, align 8, !tbaa !75
  %12 = getelementptr inbounds nuw %struct.FT_ModuleRec_, ptr %11, i32 0, i32 1
  %13 = load ptr, ptr %12, align 8, !tbaa !525
  store ptr %13, ptr %4, align 8, !tbaa !70
  call void @llvm.lifetime.start.p0(i64 8, ptr %5) #10
  %14 = load ptr, ptr %4, align 8, !tbaa !70
  %15 = getelementptr inbounds nuw %struct.FT_LibraryRec_, ptr %14, i32 0, i32 0
  %16 = load ptr, ptr %15, align 8, !tbaa !269
  store ptr %16, ptr %5, align 8, !tbaa !185
  call void @llvm.lifetime.start.p0(i64 4, ptr %6) #10
  call void @llvm.lifetime.start.p0(i64 8, ptr %7) #10
  store ptr null, ptr %7, align 8, !tbaa !364
  %17 = load ptr, ptr %5, align 8, !tbaa !185
  %18 = call ptr @ft_mem_qalloc(ptr noundef %17, i64 noundef 24, ptr noundef %6)
  store ptr %18, ptr %7, align 8, !tbaa !364
  %19 = load i32, ptr %6, align 4, !tbaa !8
  %20 = icmp ne i32 %19, 0
  br i1 %20, label %21, label %22

21:                                               ; preds = %1
  br label %104

22:                                               ; preds = %1
  call void @llvm.lifetime.start.p0(i64 8, ptr %8) #10
  %23 = load ptr, ptr %3, align 8, !tbaa !75
  store ptr %23, ptr %8, align 8, !tbaa !135
  call void @llvm.lifetime.start.p0(i64 8, ptr %9) #10
  %24 = load ptr, ptr %3, align 8, !tbaa !75
  %25 = getelementptr inbounds nuw %struct.FT_ModuleRec_, ptr %24, i32 0, i32 0
  %26 = load ptr, ptr %25, align 8, !tbaa !86
  store ptr %26, ptr %9, align 8, !tbaa !535
  %27 = load ptr, ptr %9, align 8, !tbaa !535
  %28 = load ptr, ptr %8, align 8, !tbaa !135
  %29 = getelementptr inbounds nuw %struct.FT_RendererRec_, ptr %28, i32 0, i32 1
  store ptr %27, ptr %29, align 8, !tbaa !136
  %30 = load ptr, ptr %9, align 8, !tbaa !535
  %31 = getelementptr inbounds nuw %struct.FT_Renderer_Class_, ptr %30, i32 0, i32 1
  %32 = load i32, ptr %31, align 8, !tbaa !528
  %33 = load ptr, ptr %8, align 8, !tbaa !135
  %34 = getelementptr inbounds nuw %struct.FT_RendererRec_, ptr %33, i32 0, i32 2
  store i32 %32, ptr %34, align 8, !tbaa !350
  %35 = load ptr, ptr %9, align 8, !tbaa !535
  %36 = getelementptr inbounds nuw %struct.FT_Renderer_Class_, ptr %35, i32 0, i32 6
  %37 = load ptr, ptr %36, align 8, !tbaa !530
  %38 = icmp ne ptr %37, null
  br i1 %38, label %39, label %72

39:                                               ; preds = %22
  %40 = load ptr, ptr %9, align 8, !tbaa !535
  %41 = getelementptr inbounds nuw %struct.FT_Renderer_Class_, ptr %40, i32 0, i32 6
  %42 = load ptr, ptr %41, align 8, !tbaa !530
  %43 = getelementptr inbounds nuw %struct.FT_Raster_Funcs_, ptr %42, i32 0, i32 1
  %44 = load ptr, ptr %43, align 8, !tbaa !536
  %45 = icmp ne ptr %44, null
  br i1 %45, label %46, label %72

46:                                               ; preds = %39
  %47 = load ptr, ptr %9, align 8, !tbaa !535
  %48 = getelementptr inbounds nuw %struct.FT_Renderer_Class_, ptr %47, i32 0, i32 6
  %49 = load ptr, ptr %48, align 8, !tbaa !530
  %50 = getelementptr inbounds nuw %struct.FT_Raster_Funcs_, ptr %49, i32 0, i32 1
  %51 = load ptr, ptr %50, align 8, !tbaa !536
  %52 = load ptr, ptr %5, align 8, !tbaa !185
  %53 = load ptr, ptr %8, align 8, !tbaa !135
  %54 = getelementptr inbounds nuw %struct.FT_RendererRec_, ptr %53, i32 0, i32 4
  %55 = call i32 %51(ptr noundef %52, ptr noundef %54)
  store i32 %55, ptr %6, align 4, !tbaa !8
  %56 = load i32, ptr %6, align 4, !tbaa !8
  %57 = icmp ne i32 %56, 0
  br i1 %57, label %58, label %59

58:                                               ; preds = %46
  store i32 3, ptr %10, align 4
  br label %91

59:                                               ; preds = %46
  %60 = load ptr, ptr %9, align 8, !tbaa !535
  %61 = getelementptr inbounds nuw %struct.FT_Renderer_Class_, ptr %60, i32 0, i32 6
  %62 = load ptr, ptr %61, align 8, !tbaa !530
  %63 = getelementptr inbounds nuw %struct.FT_Raster_Funcs_, ptr %62, i32 0, i32 4
  %64 = load ptr, ptr %63, align 8, !tbaa !537
  %65 = load ptr, ptr %8, align 8, !tbaa !135
  %66 = getelementptr inbounds nuw %struct.FT_RendererRec_, ptr %65, i32 0, i32 5
  store ptr %64, ptr %66, align 8, !tbaa !538
  %67 = load ptr, ptr %9, align 8, !tbaa !535
  %68 = getelementptr inbounds nuw %struct.FT_Renderer_Class_, ptr %67, i32 0, i32 2
  %69 = load ptr, ptr %68, align 8, !tbaa !539
  %70 = load ptr, ptr %8, align 8, !tbaa !135
  %71 = getelementptr inbounds nuw %struct.FT_RendererRec_, ptr %70, i32 0, i32 6
  store ptr %69, ptr %71, align 8, !tbaa !515
  br label %72

72:                                               ; preds = %59, %39, %22
  %73 = load ptr, ptr %9, align 8, !tbaa !535
  %74 = getelementptr inbounds nuw %struct.FT_Renderer_Class_, ptr %73, i32 0, i32 1
  %75 = load i32, ptr %74, align 8, !tbaa !528
  %76 = icmp eq i32 %75, 1398163232
  br i1 %76, label %77, label %83

77:                                               ; preds = %72
  %78 = load ptr, ptr %9, align 8, !tbaa !535
  %79 = getelementptr inbounds nuw %struct.FT_Renderer_Class_, ptr %78, i32 0, i32 2
  %80 = load ptr, ptr %79, align 8, !tbaa !539
  %81 = load ptr, ptr %8, align 8, !tbaa !135
  %82 = getelementptr inbounds nuw %struct.FT_RendererRec_, ptr %81, i32 0, i32 6
  store ptr %80, ptr %82, align 8, !tbaa !515
  br label %83

83:                                               ; preds = %77, %72
  %84 = load ptr, ptr %3, align 8, !tbaa !75
  %85 = load ptr, ptr %7, align 8, !tbaa !364
  %86 = getelementptr inbounds nuw %struct.FT_ListNodeRec_, ptr %85, i32 0, i32 2
  store ptr %84, ptr %86, align 8, !tbaa !370
  %87 = load ptr, ptr %4, align 8, !tbaa !70
  %88 = getelementptr inbounds nuw %struct.FT_LibraryRec_, ptr %87, i32 0, i32 6
  %89 = load ptr, ptr %7, align 8, !tbaa !364
  call void @FT_List_Add(ptr noundef %88, ptr noundef %89)
  %90 = load ptr, ptr %4, align 8, !tbaa !70
  call void @ft_set_current_renderer(ptr noundef %90)
  store i32 0, ptr %10, align 4
  br label %91

91:                                               ; preds = %58, %83
  call void @llvm.lifetime.end.p0(i64 8, ptr %9) #10
  call void @llvm.lifetime.end.p0(i64 8, ptr %8) #10
  %92 = load i32, ptr %10, align 4
  switch i32 %92, label %106 [
    i32 0, label %93
    i32 3, label %94
  ]

93:                                               ; preds = %91
  br label %94

94:                                               ; preds = %93, %91
  %95 = load i32, ptr %6, align 4, !tbaa !8
  %96 = icmp ne i32 %95, 0
  br i1 %96, label %97, label %103

97:                                               ; preds = %94
  br label %98

98:                                               ; preds = %97
  %99 = load ptr, ptr %5, align 8, !tbaa !185
  %100 = load ptr, ptr %7, align 8, !tbaa !364
  call void @ft_mem_free(ptr noundef %99, ptr noundef %100)
  store ptr null, ptr %7, align 8, !tbaa !364
  br label %101

101:                                              ; preds = %98
  br label %102

102:                                              ; preds = %101
  br label %103

103:                                              ; preds = %102, %94
  br label %104

104:                                              ; preds = %103, %21
  %105 = load i32, ptr %6, align 4, !tbaa !8
  store i32 %105, ptr %2, align 4
  store i32 1, ptr %10, align 4
  br label %106

106:                                              ; preds = %104, %91
  call void @llvm.lifetime.end.p0(i64 8, ptr %7) #10
  call void @llvm.lifetime.end.p0(i64 4, ptr %6) #10
  call void @llvm.lifetime.end.p0(i64 8, ptr %5) #10
  call void @llvm.lifetime.end.p0(i64 8, ptr %4) #10
  %107 = load i32, ptr %2, align 4
  ret i32 %107
}