; Function Attrs: nounwind uwtable
define internal fastcc i32 @ft_add_renderer(ptr noundef %0) unnamed_addr #0 {
  %2 = getelementptr inbounds nuw i8, ptr %0, i64 8
  %3 = load ptr, ptr %2, align 8, !tbaa !436
  %4 = load ptr, ptr %3, align 8, !tbaa !241
  %5 = getelementptr inbounds nuw i8, ptr %4, i64 8
  %6 = load ptr, ptr %5, align 8, !tbaa !179
  %7 = tail call ptr %6(ptr noundef %4, i64 noundef 24) #34
  %.not.i.not = icmp eq ptr %7, null
  br i1 %.not.i.not, label %ft_mem_free.exit, label %8

8:                                                ; preds = %1
  %9 = load ptr, ptr %0, align 8, !tbaa !88
  %10 = getelementptr inbounds nuw i8, ptr %0, i64 24
  store ptr %9, ptr %10, align 8, !tbaa !150
  %11 = getelementptr inbounds nuw i8, ptr %9, i64 72
  %12 = load i32, ptr %11, align 8, !tbaa !439
  %13 = getelementptr inbounds nuw i8, ptr %0, i64 32
  store i32 %12, ptr %13, align 8, !tbaa !141
  %14 = getelementptr inbounds nuw i8, ptr %9, i64 112
  %15 = load ptr, ptr %14, align 8, !tbaa !441
  %.not32 = icmp eq ptr %15, null
  br i1 %.not32, label %30, label %16

16:                                               ; preds = %8
  %17 = getelementptr inbounds nuw i8, ptr %15, i64 8
  %18 = load ptr, ptr %17, align 8, !tbaa !447
  %.not33 = icmp eq ptr %18, null
  br i1 %.not33, label %30, label %19

19:                                               ; preds = %16
  %20 = getelementptr inbounds nuw i8, ptr %0, i64 104
  %21 = tail call i32 %18(ptr noundef nonnull %4, ptr noundef nonnull %20) #34
  %.not34 = icmp eq i32 %21, 0
  br i1 %.not34, label %22, label %.thread

22:                                               ; preds = %19
  %23 = load ptr, ptr %14, align 8, !tbaa !441
  %24 = getelementptr inbounds nuw i8, ptr %23, i64 32
  %25 = load ptr, ptr %24, align 8, !tbaa !448
  %26 = getelementptr inbounds nuw i8, ptr %0, i64 112
  store ptr %25, ptr %26, align 8, !tbaa !449
  %27 = getelementptr inbounds nuw i8, ptr %9, i64 80
  %28 = load ptr, ptr %27, align 8, !tbaa !450
  %29 = getelementptr inbounds nuw i8, ptr %0, i64 120
  store ptr %28, ptr %29, align 8, !tbaa !430
  %.pre = load i32, ptr %11, align 8, !tbaa !439
  br label %30

30:                                               ; preds = %22, %16, %8
  %31 = phi i32 [ %.pre, %22 ], [ %12, %16 ], [ %12, %8 ]
  %32 = icmp eq i32 %31, 1398163232
  br i1 %32, label %33, label %37

33:                                               ; preds = %30
  %34 = getelementptr inbounds nuw i8, ptr %9, i64 80
  %35 = load ptr, ptr %34, align 8, !tbaa !450
  %36 = getelementptr inbounds nuw i8, ptr %0, i64 120
  store ptr %35, ptr %36, align 8, !tbaa !430
  br label %37

37:                                               ; preds = %30, %33
  %38 = getelementptr inbounds nuw i8, ptr %7, i64 16
  store ptr %0, ptr %38, align 8, !tbaa !147
  %39 = getelementptr inbounds nuw i8, ptr %3, i64 280
  %40 = getelementptr inbounds nuw i8, ptr %3, i64 288
  %41 = load ptr, ptr %40, align 8, !tbaa !310
  %42 = getelementptr inbounds nuw i8, ptr %7, i64 8
  store ptr null, ptr %42, align 8, !tbaa !149
  store ptr %41, ptr %7, align 8, !tbaa !311
  %.not.i36 = icmp eq ptr %41, null
  br i1 %.not.i36, label %.thread47, label %43

.thread47:                                        ; preds = %37
  store ptr %7, ptr %39, align 8, !tbaa !312
  store ptr %7, ptr %40, align 8, !tbaa !310
  br label %.lr.ph.i.i.preheader

43:                                               ; preds = %37
  %44 = getelementptr inbounds nuw i8, ptr %41, i64 8
  store ptr %7, ptr %44, align 8, !tbaa !149
  %.pr = load ptr, ptr %39, align 8, !tbaa !146
  store ptr %7, ptr %40, align 8, !tbaa !310
  %.not2632.i.i = icmp eq ptr %.pr, null
  br i1 %.not2632.i.i, label %.thread44, label %.lr.ph.i.i.preheader

.lr.ph.i.i.preheader:                             ; preds = %.thread47, %43
  %.233.i.i.ph = phi ptr [ %.pr, %43 ], [ %7, %.thread47 ]
  br label %.lr.ph.i.i

.thread44:                                        ; preds = %43
  %45 = getelementptr inbounds nuw i8, ptr %3, i64 296
  store ptr null, ptr %45, align 8, !tbaa !140
  br label %ft_mem_free.exit

.lr.ph.i.i:                                       ; preds = %.lr.ph.i.i.preheader, %51
  %.233.i.i = phi ptr [ %53, %51 ], [ %.233.i.i.ph, %.lr.ph.i.i.preheader ]
  %46 = getelementptr inbounds nuw i8, ptr %.233.i.i, i64 16
  %47 = load ptr, ptr %46, align 8, !tbaa !147
  %48 = getelementptr inbounds nuw i8, ptr %47, i64 32
  %49 = load i32, ptr %48, align 8, !tbaa !141
  %50 = icmp eq i32 %49, 1869968492
  br i1 %50, label %54, label %51

51:                                               ; preds = %.lr.ph.i.i
  %52 = getelementptr inbounds nuw i8, ptr %.233.i.i, i64 8
  %53 = load ptr, ptr %52, align 8, !tbaa !149
  %.not26.i.i = icmp eq ptr %53, null
  br i1 %.not26.i.i, label %54, label %.lr.ph.i.i

54:                                               ; preds = %51, %.lr.ph.i.i
  %.017.i.i = phi ptr [ %47, %.lr.ph.i.i ], [ null, %51 ]
  %55 = getelementptr inbounds nuw i8, ptr %3, i64 296
  store ptr %.017.i.i, ptr %55, align 8, !tbaa !140
  br label %ft_mem_free.exit

.thread:                                          ; preds = %19
  %56 = getelementptr inbounds nuw i8, ptr %4, i64 16
  %57 = load ptr, ptr %56, align 8, !tbaa !61
  tail call void %57(ptr noundef nonnull %4, ptr noundef nonnull %7) #34
  br label %ft_mem_free.exit

ft_mem_free.exit:                                 ; preds = %54, %1, %.thread44, %.thread
  %.029 = phi i32 [ 0, %54 ], [ 64, %1 ], [ 0, %.thread44 ], [ %21, %.thread ]
  ret i32 %.029
}